; Function Attrs: mustprogress uwtable
define internal void @"_ZNSt6thread11_State_implINS_8_InvokerISt5tupleIJZN8proxygen12WorkerThread5startEvE3$_0EEEEE6_M_runEv"(ptr nocapture noundef nonnull readonly align 8 dereferenceable(16) %this) unnamed_addr #0 align 2 {
entry:
  %_M_func = getelementptr inbounds i8, ptr %this, i64 8
  %_M_func.val = load ptr, ptr %_M_func, align 8
  %vtable.i.i.i.i.i = load ptr, ptr %_M_func.val, align 8
  %vfn.i.i.i.i.i = getelementptr inbounds i8, ptr %vtable.i.i.i.i.i, i64 16
  %0 = load ptr, ptr %vfn.i.i.i.i.i, align 8
  tail call void %0(ptr noundef nonnull align 8 dereferenceable(80) %_M_func.val)
  tail call void @_ZN8proxygen12WorkerThread7runLoopEv(ptr noundef nonnull align 8 dereferenceable(80) %_M_func.val)
  %vtable2.i.i.i.i.i = load ptr, ptr %_M_func.val, align 8
  %vfn3.i.i.i.i.i = getelementptr inbounds i8, ptr %vtable2.i.i.i.i.i, i64 24
  %1 = load ptr, ptr %vfn3.i.i.i.i.i, align 8
  tail call void %1(ptr noundef nonnull align 8 dereferenceable(80) %_M_func.val)
  ret void
}